target datalayout = "e-m:e-p270:32:32-p271:32:32-p272:64:64-i64:64-i128:128-f80:128-n8:16:32:64-S128"
target triple = "x86_64-pc-linux-gnu"

%struct.PROV_ML_DSA_CTX = type { ptr, ptr, [255 x i8], i64, [32 x i8], i64, i32, i32, i32, [256 x i8], i64, i32 }

@.str.9 = private unnamed_addr constant [13 x i8] c"algorithm-id\00", align 1

; Function Attrs: nounwind uwtable
define internal i32 @ml_dsa_get_ctx_params(ptr noundef %0, ptr noundef %1) #0 {
  %3 = alloca i32, align 4
  %4 = alloca ptr, align 8
  %5 = alloca ptr, align 8
  %6 = alloca ptr, align 8
  %7 = alloca ptr, align 8
  %8 = alloca i32, align 4
  store ptr %0, ptr %4, align 8, !tbaa !3
  store ptr %1, ptr %5, align 8, !tbaa !9
  call void @llvm.lifetime.start.p0(i64 8, ptr %6) #6
  %9 = load ptr, ptr %4, align 8, !tbaa !3
  store ptr %9, ptr %6, align 8, !tbaa !3
  call void @llvm.lifetime.start.p0(i64 8, ptr %7) #6
  %10 = load ptr, ptr %6, align 8, !tbaa !3
  %11 = icmp eq ptr %10, null
  br i1 %11, label %12, label %13

12:                                               ; preds = %2
  store i32 0, ptr %3, align 4
  store i32 1, ptr %8, align 4
  br label %38

13:                                               ; preds = %2
  %14 = load ptr, ptr %5, align 8, !tbaa !9
  %15 = call ptr @OSSL_PARAM_locate(ptr noundef %14, ptr noundef @.str.9)
  store ptr %15, ptr %7, align 8, !tbaa !9
  %16 = load ptr, ptr %7, align 8, !tbaa !9
  %17 = icmp ne ptr %16, null
  br i1 %17, label %18, label %37

18:                                               ; preds = %13
  %19 = load ptr, ptr %7, align 8, !tbaa !9
  %20 = load ptr, ptr %6, align 8, !tbaa !3
  %21 = getelementptr inbounds nuw %struct.PROV_ML_DSA_CTX, ptr %20, i32 0, i32 10
  %22 = load i64, ptr %21, align 8, !tbaa !28
  %23 = icmp eq i64 %22, 0
  br i1 %23, label %24, label %25

24:                                               ; preds = %18
  br label %29

25:                                               ; preds = %18
  %26 = load ptr, ptr %6, align 8, !tbaa !3
  %27 = getelementptr inbounds nuw %struct.PROV_ML_DSA_CTX, ptr %26, i32 0, i32 9
  %28 = getelementptr inbounds [256 x i8], ptr %27, i64 0, i64 0
  br label %29

29:                                               ; preds = %25, %24
  %30 = phi ptr [ null, %24 ], [ %28, %25 ]
  %31 = load ptr, ptr %6, align 8, !tbaa !3
  %32 = getelementptr inbounds nuw %struct.PROV_ML_DSA_CTX, ptr %31, i32 0, i32 10
  %33 = load i64, ptr %32, align 8, !tbaa !28
  %34 = call i32 @OSSL_PARAM_set_octet_string(ptr noundef %19, ptr noundef %30, i64 noundef %33)
  %35 = icmp ne i32 %34, 0
  br i1 %35, label %37, label %36

36:                                               ; preds = %29
  store i32 0, ptr %3, align 4
  store i32 1, ptr %8, align 4
  br label %38

37:                                               ; preds = %29, %13
  store i32 1, ptr %3, align 4
  store i32 1, ptr %8, align 4
  br label %38

38:                                               ; preds = %37, %36, %12
  call void @llvm.lifetime.end.p0(i64 8, ptr %7) #6
  call void @llvm.lifetime.end.p0(i64 8, ptr %6) #6
  %39 = load i32, ptr %3, align 4
  ret i32 %39
}