; Function Attrs: nounwind uwtable
define internal range(i32 0, 2) i32 @ml_dsa_get_ctx_params(ptr noundef %0, ptr noundef %1) #0 {
  %3 = icmp eq ptr %0, null
  br i1 %3, label %14, label %4

4:                                                ; preds = %2
  %5 = tail call ptr @OSSL_PARAM_locate(ptr noundef %1, ptr noundef nonnull @.str.9) #6
  %.not = icmp eq ptr %5, null
  br i1 %.not, label %13, label %6

6:                                                ; preds = %4
  %7 = getelementptr inbounds nuw i8, ptr %0, i64 592
  %8 = load i64, ptr %7, align 8, !tbaa !24
  %9 = icmp eq i64 %8, 0
  %10 = getelementptr inbounds nuw i8, ptr %0, i64 332
  %11 = select i1 %9, ptr null, ptr %10
  %12 = tail call i32 @OSSL_PARAM_set_octet_string(ptr noundef nonnull %5, ptr noundef %11, i64 noundef %8) #6
  %.not10 = icmp eq i32 %12, 0
  br i1 %.not10, label %14, label %13

13:                                               ; preds = %6, %4
  br label %14

14:                                               ; preds = %6, %2, %13
  %.0 = phi i32 [ 1, %13 ], [ 0, %2 ], [ 0, %6 ]
  ret i32 %.0
}